target datalayout = "e-m:e-p270:32:32-p271:32:32-p272:64:64-i64:64-i128:128-f80:128-n8:16:32:64-S128"
target triple = "x86_64-pc-linux-gnu"

@hf_netlogon_security_information = internal global i32 0, align 4
@hf_netlogon_reserved = internal global i32 0, align 4
@hf_netlogon_auditing_mode = internal global i32 0, align 4
@hf_netlogon_max_audit_event_count = internal global i32 0, align 4
@hf_netlogon_domain_name = internal global i32 0, align 4
@hf_netlogon_dummy = internal global i32 0, align 4
@hf_netlogon_max_log_size = internal global i32 0, align 4
@hf_netlogon_db_modify_time = internal global i32 0, align 4
@hf_netlogon_db_create_time = internal global i32 0, align 4
@hf_netlogon_audit_retention_period = internal global i32 0, align 4
@.str.1223 = private unnamed_addr constant [21 x i8] c"Event Audit Options:\00", align 1

; Function Attrs: null_pointer_is_valid sspstrong uwtable
define internal i32 @netlogon_dissect_DELTA_POLICY(ptr noundef %0, i32 noundef %1, ptr noundef %2, ptr noundef %3, ptr noundef %4, ptr noundef %5) #0 {
  %7 = alloca ptr, align 8
  %8 = alloca i32, align 4
  %9 = alloca ptr, align 8
  %10 = alloca ptr, align 8
  %11 = alloca ptr, align 8
  %12 = alloca ptr, align 8
  store ptr %0, ptr %7, align 8
  store i32 %1, ptr %8, align 4
  store ptr %2, ptr %9, align 8
  store ptr %3, ptr %10, align 8
  store ptr %4, ptr %11, align 8
  store ptr %5, ptr %12, align 8
  %13 = load ptr, ptr %7, align 8
  %14 = load i32, ptr %8, align 4
  %15 = load ptr, ptr %9, align 8
  %16 = load ptr, ptr %10, align 8
  %17 = load ptr, ptr %11, align 8
  %18 = load ptr, ptr %12, align 8
  %19 = load i32, ptr @hf_netlogon_max_log_size, align 4
  %20 = call i32 @dissect_ndr_uint32(ptr noundef %13, i32 noundef %14, ptr noundef %15, ptr noundef %16, ptr noundef %17, ptr noundef %18, i32 noundef %19, ptr noundef null)
  store i32 %20, ptr %8, align 4
  %21 = load ptr, ptr %7, align 8
  %22 = load i32, ptr %8, align 4
  %23 = load ptr, ptr %9, align 8
  %24 = load ptr, ptr %10, align 8
  %25 = load ptr, ptr %11, align 8
  %26 = load ptr, ptr %12, align 8
  %27 = load i32, ptr @hf_netlogon_audit_retention_period, align 4
  %28 = call i32 @dissect_ndr_nt_NTTIME(ptr noundef %21, i32 noundef %22, ptr noundef %23, ptr noundef %24, ptr noundef %25, ptr noundef %26, i32 noundef %27)
  store i32 %28, ptr %8, align 4
  %29 = load ptr, ptr %7, align 8
  %30 = load i32, ptr %8, align 4
  %31 = load ptr, ptr %9, align 8
  %32 = load ptr, ptr %10, align 8
  %33 = load ptr, ptr %11, align 8
  %34 = load ptr, ptr %12, align 8
  %35 = load i32, ptr @hf_netlogon_auditing_mode, align 4
  %36 = call i32 @dissect_ndr_uint8(ptr noundef %29, i32 noundef %30, ptr noundef %31, ptr noundef %32, ptr noundef %33, ptr noundef %34, i32 noundef %35, ptr noundef null)
  store i32 %36, ptr %8, align 4
  %37 = load ptr, ptr %7, align 8
  %38 = load i32, ptr %8, align 4
  %39 = load ptr, ptr %9, align 8
  %40 = load ptr, ptr %10, align 8
  %41 = load ptr, ptr %11, align 8
  %42 = load ptr, ptr %12, align 8
  %43 = load i32, ptr @hf_netlogon_max_audit_event_count, align 4
  %44 = call i32 @dissect_ndr_uint32(ptr noundef %37, i32 noundef %38, ptr noundef %39, ptr noundef %40, ptr noundef %41, ptr noundef %42, i32 noundef %43, ptr noundef null)
  store i32 %44, ptr %8, align 4
  %45 = load ptr, ptr %7, align 8
  %46 = load i32, ptr %8, align 4
  %47 = load ptr, ptr %9, align 8
  %48 = load ptr, ptr %10, align 8
  %49 = load ptr, ptr %11, align 8
  %50 = load ptr, ptr %12, align 8
  %51 = call i32 @dissect_ndr_pointer(ptr noundef %45, i32 noundef %46, ptr noundef %47, ptr noundef %48, ptr noundef %49, ptr noundef %50, ptr noundef @netlogon_dissect_EVENT_AUDIT_OPTIONS_ARRAY, i32 noundef 2, ptr noundef @.str.1223, i32 noundef -1)
  store i32 %51, ptr %8, align 4
  %52 = load ptr, ptr %7, align 8
  %53 = load i32, ptr %8, align 4
  %54 = load ptr, ptr %9, align 8
  %55 = load ptr, ptr %10, align 8
  %56 = load ptr, ptr %11, align 8
  %57 = load ptr, ptr %12, align 8
  %58 = load i32, ptr @hf_netlogon_domain_name, align 4
  %59 = call i32 @dissect_ndr_counted_string(ptr noundef %52, i32 noundef %53, ptr noundef %54, ptr noundef %55, ptr noundef %56, ptr noundef %57, i32 noundef %58, i32 noundef 0)
  store i32 %59, ptr %8, align 4
  %60 = load ptr, ptr %7, align 8
  %61 = load i32, ptr %8, align 4
  %62 = load ptr, ptr %9, align 8
  %63 = load ptr, ptr %10, align 8
  %64 = load ptr, ptr %11, align 8
  %65 = load ptr, ptr %12, align 8
  %66 = call i32 @dissect_ndr_nt_PSID(ptr noundef %60, i32 noundef %61, ptr noundef %62, ptr noundef %63, ptr noundef %64, ptr noundef %65)
  store i32 %66, ptr %8, align 4
  %67 = load ptr, ptr %7, align 8
  %68 = load i32, ptr %8, align 4
  %69 = load ptr, ptr %9, align 8
  %70 = load ptr, ptr %10, align 8
  %71 = load ptr, ptr %11, align 8
  %72 = load ptr, ptr %12, align 8
  %73 = call i32 @netlogon_dissect_QUOTA_LIMITS(ptr noundef %67, i32 noundef %68, ptr noundef %69, ptr noundef %70, ptr noundef %71, ptr noundef %72)
  store i32 %73, ptr %8, align 4
  %74 = load ptr, ptr %7, align 8
  %75 = load i32, ptr %8, align 4
  %76 = load ptr, ptr %9, align 8
  %77 = load ptr, ptr %10, align 8
  %78 = load ptr, ptr %11, align 8
  %79 = load ptr, ptr %12, align 8
  %80 = load i32, ptr @hf_netlogon_db_modify_time, align 4
  %81 = call i32 @dissect_ndr_nt_NTTIME(ptr noundef %74, i32 noundef %75, ptr noundef %76, ptr noundef %77, ptr noundef %78, ptr noundef %79, i32 noundef %80)
  store i32 %81, ptr %8, align 4
  %82 = load ptr, ptr %7, align 8
  %83 = load i32, ptr %8, align 4
  %84 = load ptr, ptr %9, align 8
  %85 = load ptr, ptr %10, align 8
  %86 = load ptr, ptr %11, align 8
  %87 = load ptr, ptr %12, align 8
  %88 = load i32, ptr @hf_netlogon_db_create_time, align 4
  %89 = call i32 @dissect_ndr_nt_NTTIME(ptr noundef %82, i32 noundef %83, ptr noundef %84, ptr noundef %85, ptr noundef %86, ptr noundef %87, i32 noundef %88)
  store i32 %89, ptr %8, align 4
  %90 = load ptr, ptr %7, align 8
  %91 = load i32, ptr %8, align 4
  %92 = load ptr, ptr %9, align 8
  %93 = load ptr, ptr %10, align 8
  %94 = load ptr, ptr %11, align 8
  %95 = load ptr, ptr %12, align 8
  %96 = load i32, ptr @hf_netlogon_security_information, align 4
  %97 = call i32 @dissect_ndr_uint32(ptr noundef %90, i32 noundef %91, ptr noundef %92, ptr noundef %93, ptr noundef %94, ptr noundef %95, i32 noundef %96, ptr noundef null)
  store i32 %97, ptr %8, align 4
  %98 = load ptr, ptr %7, align 8
  %99 = load i32, ptr %8, align 4
  %100 = load ptr, ptr %9, align 8
  %101 = load ptr, ptr %10, align 8
  %102 = load ptr, ptr %11, align 8
  %103 = load ptr, ptr %12, align 8
  %104 = call i32 @lsarpc_dissect_sec_desc_buf(ptr noundef %98, i32 noundef %99, ptr noundef %100, ptr noundef %101, ptr noundef %102, ptr noundef %103)
  store i32 %104, ptr %8, align 4
  %105 = load ptr, ptr %7, align 8
  %106 = load i32, ptr %8, align 4
  %107 = load ptr, ptr %9, align 8
  %108 = load ptr, ptr %10, align 8
  %109 = load ptr, ptr %11, align 8
  %110 = load ptr, ptr %12, align 8
  %111 = load i32, ptr @hf_netlogon_dummy, align 4
  %112 = call i32 @dissect_ndr_counted_string(ptr noundef %105, i32 noundef %106, ptr noundef %107, ptr noundef %108, ptr noundef %109, ptr noundef %110, i32 noundef %111, i32 noundef 0)
  store i32 %112, ptr %8, align 4
  %113 = load ptr, ptr %7, align 8
  %114 = load i32, ptr %8, align 4
  %115 = load ptr, ptr %9, align 8
  %116 = load ptr, ptr %10, align 8
  %117 = load ptr, ptr %11, align 8
  %118 = load ptr, ptr %12, align 8
  %119 = load i32, ptr @hf_netlogon_dummy, align 4
  %120 = call i32 @dissect_ndr_counted_string(ptr noundef %113, i32 noundef %114, ptr noundef %115, ptr noundef %116, ptr noundef %117, ptr noundef %118, i32 noundef %119, i32 noundef 0)
  store i32 %120, ptr %8, align 4
  %121 = load ptr, ptr %7, align 8
  %122 = load i32, ptr %8, align 4
  %123 = load ptr, ptr %9, align 8
  %124 = load ptr, ptr %10, align 8
  %125 = load ptr, ptr %11, align 8
  %126 = load ptr, ptr %12, align 8
  %127 = load i32, ptr @hf_netlogon_dummy, align 4
  %128 = call i32 @dissect_ndr_counted_string(ptr noundef %121, i32 noundef %122, ptr noundef %123, ptr noundef %124, ptr noundef %125, ptr noundef %126, i32 noundef %127, i32 noundef 0)
  store i32 %128, ptr %8, align 4
  %129 = load ptr, ptr %7, align 8
  %130 = load i32, ptr %8, align 4
  %131 = load ptr, ptr %9, align 8
  %132 = load ptr, ptr %10, align 8
  %133 = load ptr, ptr %11, align 8
  %134 = load ptr, ptr %12, align 8
  %135 = load i32, ptr @hf_netlogon_dummy, align 4
  %136 = call i32 @dissect_ndr_counted_string(ptr noundef %129, i32 noundef %130, ptr noundef %131, ptr noundef %132, ptr noundef %133, ptr noundef %134, i32 noundef %135, i32 noundef 0)
  store i32 %136, ptr %8, align 4
  %137 = load ptr, ptr %7, align 8
  %138 = load i32, ptr %8, align 4
  %139 = load ptr, ptr %9, align 8
  %140 = load ptr, ptr %10, align 8
  %141 = load ptr, ptr %11, align 8
  %142 = load ptr, ptr %12, align 8
  %143 = load i32, ptr @hf_netlogon_reserved, align 4
  %144 = call i32 @dissect_ndr_uint32(ptr noundef %137, i32 noundef %138, ptr noundef %139, ptr noundef %140, ptr noundef %141, ptr noundef %142, i32 noundef %143, ptr noundef null)
  store i32 %144, ptr %8, align 4
  %145 = load ptr, ptr %7, align 8
  %146 = load i32, ptr %8, align 4
  %147 = load ptr, ptr %9, align 8
  %148 = load ptr, ptr %10, align 8
  %149 = load ptr, ptr %11, align 8
  %150 = load ptr, ptr %12, align 8
  %151 = load i32, ptr @hf_netlogon_reserved, align 4
  %152 = call i32 @dissect_ndr_uint32(ptr noundef %145, i32 noundef %146, ptr noundef %147, ptr noundef %148, ptr noundef %149, ptr noundef %150, i32 noundef %151, ptr noundef null)
  store i32 %152, ptr %8, align 4
  %153 = load ptr, ptr %7, align 8
  %154 = load i32, ptr %8, align 4
  %155 = load ptr, ptr %9, align 8
  %156 = load ptr, ptr %10, align 8
  %157 = load ptr, ptr %11, align 8
  %158 = load ptr, ptr %12, align 8
  %159 = load i32, ptr @hf_netlogon_reserved, align 4
  %160 = call i32 @dissect_ndr_uint32(ptr noundef %153, i32 noundef %154, ptr noundef %155, ptr noundef %156, ptr noundef %157, ptr noundef %158, i32 noundef %159, ptr noundef null)
  store i32 %160, ptr %8, align 4
  %161 = load ptr, ptr %7, align 8
  %162 = load i32, ptr %8, align 4
  %163 = load ptr, ptr %9, align 8
  %164 = load ptr, ptr %10, align 8
  %165 = load ptr, ptr %11, align 8
  %166 = load ptr, ptr %12, align 8
  %167 = load i32, ptr @hf_netlogon_reserved, align 4
  %168 = call i32 @dissect_ndr_uint32(ptr noundef %161, i32 noundef %162, ptr noundef %163, ptr noundef %164, ptr noundef %165, ptr noundef %166, i32 noundef %167, ptr noundef null)
  store i32 %168, ptr %8, align 4
  %169 = load i32, ptr %8, align 4
  ret i32 %169
}