; Function Attrs: null_pointer_is_valid sspstrong uwtable
define internal i32 @netlogon_dissect_DELTA_POLICY(ptr noundef %0, i32 noundef %1, ptr noundef %2, ptr noundef %3, ptr noundef %4, ptr noundef %5) #0 {
  %7 = load i32, ptr @hf_netlogon_max_log_size, align 4
  %8 = tail call i32 @dissect_ndr_uint32(ptr noundef %0, i32 noundef %1, ptr noundef %2, ptr noundef %3, ptr noundef %4, ptr noundef %5, i32 noundef %7, ptr noundef null)
  %9 = load i32, ptr @hf_netlogon_audit_retention_period, align 4
  %10 = tail call i32 @dissect_ndr_nt_NTTIME(ptr noundef %0, i32 noundef %8, ptr noundef %2, ptr noundef %3, ptr noundef %4, ptr noundef %5, i32 noundef %9)
  %11 = load i32, ptr @hf_netlogon_auditing_mode, align 4
  %12 = tail call i32 @dissect_ndr_uint8(ptr noundef %0, i32 noundef %10, ptr noundef %2, ptr noundef %3, ptr noundef %4, ptr noundef %5, i32 noundef %11, ptr noundef null)
  %13 = load i32, ptr @hf_netlogon_max_audit_event_count, align 4
  %14 = tail call i32 @dissect_ndr_uint32(ptr noundef %0, i32 noundef %12, ptr noundef %2, ptr noundef %3, ptr noundef %4, ptr noundef %5, i32 noundef %13, ptr noundef null)
  %15 = tail call i32 @dissect_ndr_pointer(ptr noundef %0, i32 noundef %14, ptr noundef %2, ptr noundef %3, ptr noundef %4, ptr noundef %5, ptr noundef nonnull @netlogon_dissect_EVENT_AUDIT_OPTIONS_ARRAY, i32 noundef 2, ptr noundef nonnull @.str.1223, i32 noundef -1)
  %16 = load i32, ptr @hf_netlogon_domain_name, align 4
  %17 = tail call i32 @dissect_ndr_counted_string(ptr noundef %0, i32 noundef %15, ptr noundef %2, ptr noundef %3, ptr noundef %4, ptr noundef %5, i32 noundef %16, i32 noundef 0)
  %18 = tail call i32 @dissect_ndr_nt_PSID(ptr noundef %0, i32 noundef %17, ptr noundef %2, ptr noundef %3, ptr noundef %4, ptr noundef %5)
  %19 = tail call fastcc i32 @netlogon_dissect_QUOTA_LIMITS(ptr noundef %0, i32 noundef %18, ptr noundef %2, ptr noundef %3, ptr noundef %4, ptr noundef %5)
  %20 = load i32, ptr @hf_netlogon_db_modify_time, align 4
  %21 = tail call i32 @dissect_ndr_nt_NTTIME(ptr noundef %0, i32 noundef %19, ptr noundef %2, ptr noundef %3, ptr noundef %4, ptr noundef %5, i32 noundef %20)
  %22 = load i32, ptr @hf_netlogon_db_create_time, align 4
  %23 = tail call i32 @dissect_ndr_nt_NTTIME(ptr noundef %0, i32 noundef %21, ptr noundef %2, ptr noundef %3, ptr noundef %4, ptr noundef %5, i32 noundef %22)
  %24 = load i32, ptr @hf_netlogon_security_information, align 4
  %25 = tail call i32 @dissect_ndr_uint32(ptr noundef %0, i32 noundef %23, ptr noundef %2, ptr noundef %3, ptr noundef %4, ptr noundef %5, i32 noundef %24, ptr noundef null)
  %26 = tail call i32 @lsarpc_dissect_sec_desc_buf(ptr noundef %0, i32 noundef %25, ptr noundef %2, ptr noundef %3, ptr noundef %4, ptr noundef %5)
  %27 = load i32, ptr @hf_netlogon_dummy, align 4
  %28 = tail call i32 @dissect_ndr_counted_string(ptr noundef %0, i32 noundef %26, ptr noundef %2, ptr noundef %3, ptr noundef %4, ptr noundef %5, i32 noundef %27, i32 noundef 0)
  %29 = load i32, ptr @hf_netlogon_dummy, align 4
  %30 = tail call i32 @dissect_ndr_counted_string(ptr noundef %0, i32 noundef %28, ptr noundef %2, ptr noundef %3, ptr noundef %4, ptr noundef %5, i32 noundef %29, i32 noundef 0)
  %31 = load i32, ptr @hf_netlogon_dummy, align 4
  %32 = tail call i32 @dissect_ndr_counted_string(ptr noundef %0, i32 noundef %30, ptr noundef %2, ptr noundef %3, ptr noundef %4, ptr noundef %5, i32 noundef %31, i32 noundef 0)
  %33 = load i32, ptr @hf_netlogon_dummy, align 4
  %34 = tail call i32 @dissect_ndr_counted_string(ptr noundef %0, i32 noundef %32, ptr noundef %2, ptr noundef %3, ptr noundef %4, ptr noundef %5, i32 noundef %33, i32 noundef 0)
  %35 = load i32, ptr @hf_netlogon_reserved, align 4
  %36 = tail call i32 @dissect_ndr_uint32(ptr noundef %0, i32 noundef %34, ptr noundef %2, ptr noundef %3, ptr noundef %4, ptr noundef %5, i32 noundef %35, ptr noundef null)
  %37 = load i32, ptr @hf_netlogon_reserved, align 4
  %38 = tail call i32 @dissect_ndr_uint32(ptr noundef %0, i32 noundef %36, ptr noundef %2, ptr noundef %3, ptr noundef %4, ptr noundef %5, i32 noundef %37, ptr noundef null)
  %39 = load i32, ptr @hf_netlogon_reserved, align 4
  %40 = tail call i32 @dissect_ndr_uint32(ptr noundef %0, i32 noundef %38, ptr noundef %2, ptr noundef %3, ptr noundef %4, ptr noundef %5, i32 noundef %39, ptr noundef null)
  %41 = load i32, ptr @hf_netlogon_reserved, align 4
  %42 = tail call i32 @dissect_ndr_uint32(ptr noundef %0, i32 noundef %40, ptr noundef %2, ptr noundef %3, ptr noundef %4, ptr noundef %5, i32 noundef %41, ptr noundef null)
  ret i32 %42
}